target datalayout = "e-m:e-p270:32:32-p271:32:32-p272:64:64-i64:64-i128:128-f80:128-n8:16:32:64-S128"
target triple = "x86_64-pc-linux-gnu"

%union.SourceSpan = type { i64 }
%struct.SemaContext_ = type { ptr, ptr, ptr, %struct.CallEnv, ptr, %union.SourceSpan, i32, i32, ptr, i32, ptr, i32, i32, ptr, ptr, i32, %struct.anon.85, ptr, ptr, ptr, %struct.DynamicScope_, ptr }
%struct.CallEnv = type { i16, ptr, %union.anon.54 }
%union.anon.54 = type { ptr }
%struct.anon.85 = type { i32, ptr, ptr, ptr, ptr, ptr, ptr, ptr, ptr, ptr, i8, ptr }
%struct.DynamicScope_ = type { i32, i8, i32, i32, i32, i32, i32, ptr, i32 }
%struct.Expr_ = type { ptr, %union.SourceSpan, i16, %union.anon.61 }
%union.anon.61 = type { %struct.ExprAnySwitch }
%struct.ExprAnySwitch = type { i8, %union.anon.63 }
%union.anon.63 = type { %struct.anon.64 }
%struct.anon.64 = type { ptr, %union.SourceSpan, ptr }
%struct.Type_ = type { i32, ptr, ptr, ptr, %union.anon.86, ptr, ptr, %union.anon.88 }
%union.anon.86 = type { ptr }
%union.anon.88 = type { %struct.TypeFunction }
%struct.TypeFunction = type { ptr, ptr, ptr }
%struct.Signature_ = type <{ %struct.CalleeAttributes, i16, i8, i32, i32, [4 x i8], ptr }>
%struct.CalleeAttributes = type { i8 }
%struct.CalledDecl = type { i8, ptr, ptr, ptr, ptr, ptr }
%struct.ExprCall = type { %union.anon.65, i32, i16, ptr, %union.anon.66 }
%union.anon.65 = type { i32 }
%union.anon.66 = type { ptr }
%struct.FunctionPrototype_ = type { i16, i16, ptr, ptr, ptr, ptr, ptr, ptr, ptr, ptr, ptr, ptr, ptr }

@type_void = external global ptr, align 8
@.str.99 = private unnamed_addr constant [79 x i8] c"Only '@pure' functions may be called, you can override this with an attribute.\00", align 1

; Function Attrs: nounwind uwtable
define internal zeroext i1 @sema_call_analyse_func_invocation(ptr noundef %0, ptr noundef %1, ptr noundef %2, ptr noundef %3, i1 noundef zeroext %4, ptr noundef %5, ptr noundef %6) #0 {
  %8 = alloca ptr, align 8
  %9 = alloca ptr, align 8
  %10 = alloca i8, align 1
  %11 = alloca i1, align 1
  %12 = alloca ptr, align 8
  %13 = alloca i32, align 4
  %14 = alloca i1, align 1
  %15 = alloca ptr, align 8
  %16 = alloca ptr, align 8
  %17 = alloca ptr, align 8
  %18 = alloca ptr, align 8
  %19 = alloca i8, align 1
  %20 = alloca ptr, align 8
  %21 = alloca ptr, align 8
  %22 = alloca ptr, align 8
  %23 = alloca %struct.CalledDecl, align 8
  %24 = alloca ptr, align 8
  %25 = alloca i8, align 1
  store ptr %0, ptr %15, align 8
  store ptr %1, ptr %16, align 8
  store ptr %2, ptr %17, align 8
  store ptr %3, ptr %18, align 8
  %26 = zext i1 %4 to i8
  store i8 %26, ptr %19, align 1
  store ptr %5, ptr %20, align 8
  store ptr %6, ptr %21, align 8
  %27 = load ptr, ptr %16, align 8
  %28 = getelementptr inbounds %struct.Type_, ptr %27, i32 0, i32 7
  %29 = getelementptr inbounds %struct.TypeFunction, ptr %28, i32 0, i32 1
  %30 = load ptr, ptr %29, align 8
  store ptr %30, ptr %22, align 8
  %31 = getelementptr inbounds %struct.CalledDecl, ptr %23, i32 0, i32 0
  store i8 0, ptr %31, align 8
  %32 = getelementptr inbounds %struct.CalledDecl, ptr %23, i32 0, i32 1
  %33 = load ptr, ptr %20, align 8
  store ptr %33, ptr %32, align 8
  %34 = getelementptr inbounds %struct.CalledDecl, ptr %23, i32 0, i32 2
  store ptr null, ptr %34, align 8
  %35 = getelementptr inbounds %struct.CalledDecl, ptr %23, i32 0, i32 3
  %36 = load ptr, ptr %22, align 8
  %37 = getelementptr inbounds %struct.Signature_, ptr %36, i32 0, i32 6
  %38 = load ptr, ptr %37, align 8
  store ptr %38, ptr %35, align 8
  %39 = getelementptr inbounds %struct.CalledDecl, ptr %23, i32 0, i32 4
  %40 = load ptr, ptr %18, align 8
  store ptr %40, ptr %39, align 8
  %41 = getelementptr inbounds %struct.CalledDecl, ptr %23, i32 0, i32 5
  %42 = load ptr, ptr %22, align 8
  store ptr %42, ptr %41, align 8
  %43 = load ptr, ptr %15, align 8
  %44 = getelementptr inbounds %struct.SemaContext_, ptr %43, i32 0, i32 3
  %45 = load i16, ptr %44, align 8
  %46 = lshr i16 %45, 9
  %47 = and i16 %46, 1
  %48 = trunc i16 %47 to i1
  br i1 %48, label %49, label %69

49:                                               ; preds = %7
  %50 = load ptr, ptr %22, align 8
  %51 = getelementptr inbounds %struct.Signature_, ptr %50, i32 0, i32 0
  %52 = load i8, ptr %51, align 8
  %53 = lshr i8 %52, 2
  %54 = and i8 %53, 1
  %55 = trunc i8 %54 to i1
  br i1 %55, label %69, label %56

56:                                               ; preds = %49
  %57 = load ptr, ptr %17, align 8
  %58 = getelementptr inbounds %struct.Expr_, ptr %57, i32 0, i32 3
  %59 = getelementptr inbounds %struct.ExprCall, ptr %58, i32 0, i32 2
  %60 = load i16, ptr %59, align 8
  %61 = lshr i16 %60, 7
  %62 = and i16 %61, 1
  %63 = trunc i16 %62 to i1
  br i1 %63, label %69, label %64

64:                                               ; preds = %56
  %65 = load ptr, ptr %17, align 8
  %66 = getelementptr inbounds %struct.Expr_, ptr %65, i32 0, i32 1
  %67 = getelementptr inbounds %union.SourceSpan, ptr %66, i32 0, i32 0
  %68 = load i64, ptr %67, align 8
  call void (i64, ptr, ...) @sema_error_at(i64 %68, ptr noundef @.str.99)
  store i1 false, ptr %14, align 1
  br label %188

69:                                               ; preds = %56, %49, %7
  %70 = load ptr, ptr %22, align 8
  %71 = getelementptr inbounds %struct.Signature_, ptr %70, i32 0, i32 0
  %72 = load i8, ptr %71, align 8
  %73 = lshr i8 %72, 3
  %74 = and i8 %73, 1
  %75 = trunc i8 %74 to i1
  br i1 %75, label %76, label %83

76:                                               ; preds = %69
  %77 = load ptr, ptr %17, align 8
  %78 = getelementptr inbounds %struct.Expr_, ptr %77, i32 0, i32 3
  %79 = getelementptr inbounds %struct.ExprCall, ptr %78, i32 0, i32 2
  %80 = load i16, ptr %79, align 8
  %81 = and i16 %80, -257
  %82 = or i16 %81, 256
  store i16 %82, ptr %79, align 8
  br label %83

83:                                               ; preds = %76, %69
  %84 = load ptr, ptr %15, align 8
  %85 = load ptr, ptr %17, align 8
  %86 = load ptr, ptr %21, align 8
  %87 = call zeroext i1 @sema_call_analyse_invocation(ptr noundef %84, ptr noundef %85, ptr noundef byval(%struct.CalledDecl) align 8 %23, ptr noundef %19, ptr noundef %86)
  br i1 %87, label %89, label %88

88:                                               ; preds = %83
  store i1 false, ptr %14, align 1
  br label %188

89:                                               ; preds = %83
  %90 = load ptr, ptr %16, align 8
  %91 = getelementptr inbounds %struct.Type_, ptr %90, i32 0, i32 7
  %92 = getelementptr inbounds %struct.TypeFunction, ptr %91, i32 0, i32 2
  %93 = load ptr, ptr %92, align 8
  %94 = getelementptr inbounds %struct.FunctionPrototype_, ptr %93, i32 0, i32 2
  %95 = load ptr, ptr %94, align 8
  store ptr %95, ptr %24, align 8
  %96 = load i8, ptr %19, align 1
  %97 = trunc i8 %96 to i1
  %98 = load ptr, ptr %17, align 8
  %99 = getelementptr inbounds %struct.Expr_, ptr %98, i32 0, i32 3
  %100 = getelementptr inbounds %struct.ExprCall, ptr %99, i32 0, i32 2
  %101 = zext i1 %97 to i16
  %102 = load i16, ptr %100, align 8
  %103 = shl i16 %101, 10
  %104 = and i16 %102, -1025
  %105 = or i16 %104, %103
  store i16 %105, ptr %100, align 8
  %106 = load ptr, ptr %24, align 8
  %107 = load ptr, ptr @type_void, align 8
  %108 = icmp ne ptr %106, %107
  br i1 %108, label %109, label %168

109:                                              ; preds = %89
  %110 = load ptr, ptr %24, align 8
  store ptr %110, ptr %12, align 8
  %111 = load ptr, ptr %12, align 8
  %112 = icmp ne ptr %111, null
  br i1 %112, label %114, label %113

113:                                              ; preds = %109
  store i1 false, ptr %11, align 1
  br label %127

114:                                              ; preds = %109
  %115 = load ptr, ptr %12, align 8
  %116 = load i32, ptr %115, align 8
  store i32 %116, ptr %13, align 4
  %117 = load i32, ptr %13, align 4
  %118 = icmp eq i32 %117, 31
  br i1 %118, label %119, label %124

119:                                              ; preds = %114
  %120 = load ptr, ptr %12, align 8
  %121 = getelementptr inbounds %struct.Type_, ptr %120, i32 0, i32 1
  %122 = load ptr, ptr %121, align 8
  %123 = load i32, ptr %122, align 8
  store i32 %123, ptr %13, align 4
  br label %124

124:                                              ; preds = %119, %114
  %125 = load i32, ptr %13, align 4
  %126 = icmp eq i32 %125, 40
  store i1 %126, ptr %11, align 1
  br label %127

127:                                              ; preds = %124, %113
  %128 = load i1, ptr %11, align 1
  %129 = zext i1 %128 to i8
  store i8 %129, ptr %25, align 1
  %130 = load i8, ptr %25, align 1
  %131 = trunc i8 %130 to i1
  %132 = load ptr, ptr %17, align 8
  %133 = getelementptr inbounds %struct.Expr_, ptr %132, i32 0, i32 3
  %134 = getelementptr inbounds %struct.ExprCall, ptr %133, i32 0, i32 2
  %135 = zext i1 %131 to i16
  %136 = load i16, ptr %134, align 8
  %137 = shl i16 %135, 12
  %138 = and i16 %136, -4097
  %139 = or i16 %138, %137
  store i16 %139, ptr %134, align 8
  %140 = load ptr, ptr %22, align 8
  %141 = getelementptr inbounds %struct.Signature_, ptr %140, i32 0, i32 0
  %142 = load i8, ptr %141, align 8
  %143 = and i8 %142, 1
  %144 = trunc i8 %143 to i1
  br i1 %144, label %158, label %145

145:                                              ; preds = %127
  %146 = load i8, ptr %25, align 1
  %147 = trunc i8 %146 to i1
  br i1 %147, label %148, label %156

148:                                              ; preds = %145
  %149 = load ptr, ptr %22, align 8
  %150 = getelementptr inbounds %struct.Signature_, ptr %149, i32 0, i32 0
  %151 = load i8, ptr %150, align 8
  %152 = lshr i8 %151, 1
  %153 = and i8 %152, 1
  %154 = trunc i8 %153 to i1
  %155 = xor i1 %154, true
  br label %156

156:                                              ; preds = %148, %145
  %157 = phi i1 [ false, %145 ], [ %155, %148 ]
  br label %158

158:                                              ; preds = %156, %127
  %159 = phi i1 [ true, %127 ], [ %157, %156 ]
  %160 = load ptr, ptr %17, align 8
  %161 = getelementptr inbounds %struct.Expr_, ptr %160, i32 0, i32 3
  %162 = getelementptr inbounds %struct.ExprCall, ptr %161, i32 0, i32 2
  %163 = zext i1 %159 to i16
  %164 = load i16, ptr %162, align 8
  %165 = shl i16 %163, 11
  %166 = and i16 %164, -2049
  %167 = or i16 %166, %165
  store i16 %167, ptr %162, align 8
  br label %168

168:                                              ; preds = %158, %89
  %169 = load ptr, ptr %24, align 8
  %170 = load i8, ptr %19, align 1
  %171 = trunc i8 %170 to i1
  store ptr %169, ptr %9, align 8
  %172 = zext i1 %171 to i8
  store i8 %172, ptr %10, align 1
  %173 = load i8, ptr %10, align 1
  %174 = trunc i8 %173 to i1
  br i1 %174, label %175, label %179

175:                                              ; preds = %168
  %176 = load ptr, ptr %9, align 8
  %177 = load i32, ptr %176, align 8
  %178 = icmp eq i32 %177, 40
  br i1 %178, label %179, label %181

179:                                              ; preds = %175, %168
  %180 = load ptr, ptr %9, align 8
  store ptr %180, ptr %8, align 8
  br label %184

181:                                              ; preds = %175
  %182 = load ptr, ptr %9, align 8
  %183 = call ptr @type_get_optional(ptr noundef %182) #7
  store ptr %183, ptr %8, align 8
  br label %184

184:                                              ; preds = %181, %179
  %185 = load ptr, ptr %8, align 8
  %186 = load ptr, ptr %17, align 8
  %187 = getelementptr inbounds %struct.Expr_, ptr %186, i32 0, i32 0
  store ptr %185, ptr %187, align 8
  store i1 true, ptr %14, align 1
  br label %188

188:                                              ; preds = %184, %88, %64
  %189 = load i1, ptr %14, align 1
  ret i1 %189
}