; Function Attrs: nounwind uwtable
define internal fastcc noundef zeroext i1 @sema_call_analyse_func_invocation(ptr noundef %0, ptr nocapture noundef readonly %1, ptr nocapture noundef %2, ptr noundef %3, i1 noundef zeroext %4, ptr noundef %5, ptr noundef %6) unnamed_addr #0 {
  %8 = alloca i8, align 1
  %9 = alloca %struct.CalledDecl, align 8
  %10 = zext i1 %4 to i8
  store i8 %10, ptr %8, align 1
  %11 = getelementptr inbounds i8, ptr %1, i64 64
  %12 = load ptr, ptr %11, align 8
  store i8 0, ptr %9, align 8
  %13 = getelementptr inbounds i8, ptr %9, i64 8
  store ptr %5, ptr %13, align 8
  %14 = getelementptr inbounds i8, ptr %9, i64 16
  store ptr null, ptr %14, align 8
  %15 = getelementptr inbounds i8, ptr %9, i64 24
  %16 = getelementptr inbounds i8, ptr %12, i64 16
  %17 = load ptr, ptr %16, align 8
  store ptr %17, ptr %15, align 8
  %18 = getelementptr inbounds i8, ptr %9, i64 32
  store ptr %3, ptr %18, align 8
  %19 = getelementptr inbounds i8, ptr %9, i64 40
  store ptr %12, ptr %19, align 8
  %20 = getelementptr inbounds i8, ptr %0, i64 24
  %21 = load i16, ptr %20, align 8
  %22 = and i16 %21, 512
  %.not = icmp ne i16 %22, 0
  %.pre = load i8, ptr %12, align 8
  %23 = and i8 %.pre, 4
  %.not42 = icmp eq i8 %23, 0
  %or.cond = select i1 %.not, i1 %.not42, i1 false
  br i1 %or.cond, label %24, label %31

24:                                               ; preds = %7
  %25 = getelementptr inbounds i8, ptr %2, i64 32
  %26 = load i16, ptr %25, align 8
  %27 = and i16 %26, 128
  %.not43 = icmp eq i16 %27, 0
  br i1 %.not43, label %28, label %31

28:                                               ; preds = %24
  %29 = getelementptr inbounds i8, ptr %2, i64 8
  %30 = load i64, ptr %29, align 8
  tail call void (i64, ptr, ...) @sema_error_at(i64 %30, ptr noundef nonnull @.str.99) #13
  br label %83

31:                                               ; preds = %24, %7
  %32 = and i8 %.pre, 8
  %.not44 = icmp eq i8 %32, 0
  br i1 %.not44, label %37, label %33

33:                                               ; preds = %31
  %34 = getelementptr inbounds i8, ptr %2, i64 32
  %35 = load i16, ptr %34, align 8
  %36 = or i16 %35, 256
  store i16 %36, ptr %34, align 8
  br label %37

37:                                               ; preds = %33, %31
  %38 = call fastcc zeroext i1 @sema_call_analyse_invocation(ptr noundef nonnull %0, ptr noundef %2, ptr noundef nonnull byval(%struct.CalledDecl) align 8 %9, ptr noundef nonnull %8, ptr noundef %6)
  br i1 %38, label %39, label %83

39:                                               ; preds = %37
  %40 = getelementptr inbounds i8, ptr %1, i64 72
  %41 = load ptr, ptr %40, align 8
  %42 = getelementptr inbounds i8, ptr %41, i64 8
  %43 = load ptr, ptr %42, align 8
  %44 = load i8, ptr %8, align 1
  %45 = getelementptr inbounds i8, ptr %2, i64 32
  %46 = and i8 %44, 1
  %47 = zext nneg i8 %46 to i16
  %48 = load i16, ptr %45, align 8
  %49 = shl nuw nsw i16 %47, 10
  %50 = and i16 %48, -1025
  %51 = or disjoint i16 %49, %50
  store i16 %51, ptr %45, align 8
  %52 = load ptr, ptr @type_void, align 8
  %.not45 = icmp eq ptr %43, %52
  br i1 %.not45, label %75, label %53

53:                                               ; preds = %39
  %.not46 = icmp eq ptr %43, null
  br i1 %.not46, label %.thread, label %54

54:                                               ; preds = %53
  %55 = load i32, ptr %43, align 8
  %56 = icmp eq i32 %55, 31
  br i1 %56, label %57, label %61

57:                                               ; preds = %54
  %58 = getelementptr inbounds i8, ptr %43, i64 8
  %59 = load ptr, ptr %58, align 8
  %60 = load i32, ptr %59, align 8
  br label %61

61:                                               ; preds = %54, %57
  %.038 = phi i32 [ %60, %57 ], [ %55, %54 ]
  %.038.fr = freeze i32 %.038
  %62 = icmp ne i32 %.038.fr, 40
  %spec.select = select i1 %62, i16 0, i16 4096
  br label %.thread

.thread:                                          ; preds = %61, %53
  %.03750 = phi i1 [ true, %53 ], [ %62, %61 ]
  %63 = phi i16 [ 0, %53 ], [ %spec.select, %61 ]
  %64 = and i16 %51, -4097
  %65 = or disjoint i16 %63, %64
  store i16 %65, ptr %45, align 8
  %66 = load i8, ptr %12, align 8
  %67 = trunc i8 %66 to i1
  %68 = and i8 %66, 2
  %69 = zext nneg i8 %68 to i16
  %70 = shl nuw nsw i16 %69, 10
  %71 = xor i16 %70, 2048
  %spec.select51 = select i1 %.03750, i16 0, i16 %71
  %72 = select i1 %67, i16 2048, i16 %spec.select51
  %73 = and i16 %65, -2049
  %74 = or i16 %72, %73
  store i16 %74, ptr %45, align 8
  br label %75

75:                                               ; preds = %.thread, %39
  %76 = trunc i8 %44 to i1
  br i1 %76, label %77, label %82

77:                                               ; preds = %75
  %78 = load i32, ptr %43, align 8
  %79 = icmp eq i32 %78, 40
  br i1 %79, label %82, label %80

80:                                               ; preds = %77
  %81 = tail call ptr @type_get_optional(ptr noundef nonnull %43) #13
  br label %82

82:                                               ; preds = %75, %77, %80
  %.0 = phi ptr [ %81, %80 ], [ %43, %77 ], [ %43, %75 ]
  store ptr %.0, ptr %2, align 8
  br label %83

83:                                               ; preds = %37, %82, %28
  %.039 = phi i1 [ true, %82 ], [ false, %28 ], [ false, %37 ]
  ret i1 %.039
}